target datalayout = "e-m:e-p270:32:32-p271:32:32-p272:64:64-i64:64-i128:128-f80:128-n8:16:32:64-S128"
target triple = "x86_64-pc-linux-gnu"

%union.EX_STYPE = type { ptr }
%struct.Exnode_s = type { i64, i64, i8, %union.anon, %union.Exdata_u, i32 }
%union.anon = type { ptr }
%union.Exdata_u = type { %struct.anon.2 }
%struct.anon.2 = type { ptr, ptr, ptr, ptr }
%struct.Expr_s = type { ptr, ptr, [10 x ptr], ptr, ptr, ptr, ptr, ptr, ptr, %struct.agxbuf, %union.EX_STYPE, %struct.Exid_s, [512 x i8], ptr, i32, i32, i32, i64, i64, i32 }
%struct.agxbuf = type { %union.anon.10 }
%union.anon.10 = type { %struct.anon.11 }
%struct.anon.11 = type { ptr, i64, i64, [7 x i8], i8 }
%struct.Exid_s = type { %struct.dtlink_s_, i64, i64, i64, i64, ptr, ptr, [32 x i8] }
%struct.dtlink_s_ = type { ptr, %union.anon.12 }
%union.anon.12 = type { ptr }
%struct.anon.0 = type { ptr, ptr }
%struct.Fmt_t = type { %struct._sffmt_s, ptr, ptr, ptr, %union.EX_STYPE, ptr }
%struct._sffmt_s = type { ptr, ptr, i32, i64, i32, i32, i32, i32, ptr, i64 }
%struct.anon.9 = type { ptr, ptr, ptr }

@.str.41 = private unnamed_addr constant [32 x i8] c"scanf: %lld: invalid descriptor\00", align 1
@.str.42 = private unnamed_addr constant [37 x i8] c"scanf: failed to open temporary file\00", align 1
@.str.43 = private unnamed_addr constant [30 x i8] c"scanf: %s: too many arguments\00", align 1

; Function Attrs: nounwind uwtable
define internal i32 @scan(ptr noundef %0, ptr noundef %1, ptr noundef %2, ptr noundef %3) #0 {
  %5 = alloca i32, align 4
  %6 = alloca ptr, align 8
  %7 = alloca ptr, align 8
  %8 = alloca ptr, align 8
  %9 = alloca ptr, align 8
  %10 = alloca %union.EX_STYPE, align 8
  %11 = alloca %union.EX_STYPE, align 8
  %12 = alloca %struct.Fmt_t, align 8
  %13 = alloca i32, align 4
  %14 = alloca %union.EX_STYPE, align 8
  %15 = alloca i32, align 4
  %16 = alloca %union.EX_STYPE, align 8
  store ptr %0, ptr %6, align 8, !tbaa !3
  store ptr %1, ptr %7, align 8, !tbaa !8
  store ptr %2, ptr %8, align 8, !tbaa !10
  store ptr %3, ptr %9, align 8, !tbaa !50
  call void @llvm.lifetime.start.p0(i64 8, ptr %10) #15
  call void @llvm.lifetime.start.p0(i64 8, ptr %11) #15
  call void @llvm.lifetime.start.p0(i64 104, ptr %12) #15
  call void @llvm.lifetime.start.p0(i64 4, ptr %13) #15
  %17 = load ptr, ptr %9, align 8, !tbaa !50
  %18 = icmp ne ptr %17, null
  br i1 %18, label %67, label %19

19:                                               ; preds = %4
  %20 = load ptr, ptr %7, align 8, !tbaa !8
  %21 = getelementptr inbounds nuw %struct.Exnode_s, ptr %20, i32 0, i32 4
  %22 = getelementptr inbounds nuw %struct.anon.9, ptr %21, i32 0, i32 0
  %23 = load ptr, ptr %22, align 8, !tbaa !11
  %24 = icmp ne ptr %23, null
  br i1 %24, label %25, label %43

25:                                               ; preds = %19
  call void @llvm.lifetime.start.p0(i64 8, ptr %14) #15
  %26 = load ptr, ptr %6, align 8, !tbaa !3
  %27 = load ptr, ptr %7, align 8, !tbaa !8
  %28 = getelementptr inbounds nuw %struct.Exnode_s, ptr %27, i32 0, i32 4
  %29 = getelementptr inbounds nuw %struct.anon.9, ptr %28, i32 0, i32 0
  %30 = load ptr, ptr %29, align 8, !tbaa !11
  %31 = load ptr, ptr %8, align 8, !tbaa !10
  %32 = call ptr @eval(ptr noundef %26, ptr noundef %30, ptr noundef %31)
  %33 = getelementptr inbounds nuw %union.EX_STYPE, ptr %14, i32 0, i32 0
  store ptr %32, ptr %33, align 8
  call void @llvm.memcpy.p0.p0.i64(ptr align 8 %10, ptr align 8 %14, i64 8, i1 false), !tbaa.struct !34
  call void @llvm.lifetime.end.p0(i64 8, ptr %14) #15
  %34 = load ptr, ptr %7, align 8, !tbaa !8
  %35 = getelementptr inbounds nuw %struct.Exnode_s, ptr %34, i32 0, i32 4
  %36 = getelementptr inbounds nuw %struct.anon.9, ptr %35, i32 0, i32 0
  %37 = load ptr, ptr %36, align 8, !tbaa !11
  %38 = getelementptr inbounds nuw %struct.Exnode_s, ptr %37, i32 0, i32 0
  %39 = load i64, ptr %38, align 8, !tbaa !12
  %40 = icmp eq i64 %39, 263
  br i1 %40, label %41, label %42

41:                                               ; preds = %25
  br label %68

42:                                               ; preds = %25
  br label %44

43:                                               ; preds = %19
  store i64 0, ptr %10, align 8, !tbaa !11
  br label %44

44:                                               ; preds = %43, %42
  %45 = load i64, ptr %10, align 8, !tbaa !11
  %46 = icmp slt i64 %45, 0
  br i1 %46, label %64, label %47

47:                                               ; preds = %44
  %48 = load i64, ptr %10, align 8, !tbaa !11
  %49 = icmp sge i64 %48, 10
  br i1 %49, label %64, label %50

50:                                               ; preds = %47
  %51 = load ptr, ptr %6, align 8, !tbaa !3
  %52 = getelementptr inbounds nuw %struct.Expr_s, ptr %51, i32 0, i32 2
  %53 = load i64, ptr %10, align 8, !tbaa !11
  %54 = getelementptr inbounds [10 x ptr], ptr %52, i64 0, i64 %53
  %55 = load ptr, ptr %54, align 8, !tbaa !50
  store ptr %55, ptr %9, align 8, !tbaa !50
  %56 = icmp ne ptr %55, null
  br i1 %56, label %66, label %57

57:                                               ; preds = %50
  %58 = call noalias ptr @tmpfile()
  %59 = load ptr, ptr %6, align 8, !tbaa !3
  %60 = getelementptr inbounds nuw %struct.Expr_s, ptr %59, i32 0, i32 2
  %61 = load i64, ptr %10, align 8, !tbaa !11
  %62 = getelementptr inbounds [10 x ptr], ptr %60, i64 0, i64 %61
  store ptr %58, ptr %62, align 8, !tbaa !50
  store ptr %58, ptr %9, align 8, !tbaa !50
  %63 = icmp ne ptr %58, null
  br i1 %63, label %66, label %64

64:                                               ; preds = %57, %47, %44
  %65 = load i64, ptr %10, align 8, !tbaa !11
  call void (ptr, ...) @exerror(ptr noundef @.str.41, i64 noundef %65)
  store i32 0, ptr %5, align 4
  store i32 1, ptr %15, align 4
  br label %135

66:                                               ; preds = %57, %50
  br label %67

67:                                               ; preds = %66, %4
  br label %68

68:                                               ; preds = %67, %41
  call void @llvm.memset.p0.i64(ptr align 8 %12, i8 0, i64 104, i1 false)
  %69 = getelementptr inbounds nuw %struct.Fmt_t, ptr %12, i32 0, i32 0
  %70 = getelementptr inbounds nuw %struct._sffmt_s, ptr %69, i32 0, i32 0
  store ptr @scformat, ptr %70, align 8, !tbaa !91
  %71 = load ptr, ptr %6, align 8, !tbaa !3
  %72 = getelementptr inbounds nuw %struct.Fmt_t, ptr %12, i32 0, i32 1
  store ptr %71, ptr %72, align 8, !tbaa !95
  %73 = load ptr, ptr %8, align 8, !tbaa !10
  %74 = getelementptr inbounds nuw %struct.Fmt_t, ptr %12, i32 0, i32 2
  store ptr %73, ptr %74, align 8, !tbaa !96
  call void @llvm.lifetime.start.p0(i64 8, ptr %16) #15
  %75 = load ptr, ptr %6, align 8, !tbaa !3
  %76 = load ptr, ptr %7, align 8, !tbaa !8
  %77 = getelementptr inbounds nuw %struct.Exnode_s, ptr %76, i32 0, i32 4
  %78 = getelementptr inbounds nuw %struct.anon.9, ptr %77, i32 0, i32 1
  %79 = load ptr, ptr %78, align 8, !tbaa !11
  %80 = load ptr, ptr %8, align 8, !tbaa !10
  %81 = call ptr @eval(ptr noundef %75, ptr noundef %79, ptr noundef %80)
  %82 = getelementptr inbounds nuw %union.EX_STYPE, ptr %16, i32 0, i32 0
  store ptr %81, ptr %82, align 8
  call void @llvm.memcpy.p0.p0.i64(ptr align 8 %11, ptr align 8 %16, i64 8, i1 false), !tbaa.struct !34
  call void @llvm.lifetime.end.p0(i64 8, ptr %16) #15
  %83 = load ptr, ptr %11, align 8, !tbaa !11
  %84 = getelementptr inbounds nuw %struct.Fmt_t, ptr %12, i32 0, i32 0
  %85 = getelementptr inbounds nuw %struct._sffmt_s, ptr %84, i32 0, i32 1
  store ptr %83, ptr %85, align 8, !tbaa !101
  %86 = load ptr, ptr %7, align 8, !tbaa !8
  %87 = getelementptr inbounds nuw %struct.Exnode_s, ptr %86, i32 0, i32 4
  %88 = getelementptr inbounds nuw %struct.anon.9, ptr %87, i32 0, i32 2
  %89 = load ptr, ptr %88, align 8, !tbaa !11
  %90 = getelementptr inbounds nuw %struct.Fmt_t, ptr %12, i32 0, i32 5
  store ptr %89, ptr %90, align 8, !tbaa !105
  %91 = load ptr, ptr %9, align 8, !tbaa !50
  %92 = icmp eq ptr %91, null
  br i1 %92, label %93, label %108

93:                                               ; preds = %68
  %94 = call noalias ptr @tmpfile()
  store ptr %94, ptr %9, align 8, !tbaa !50
  %95 = load ptr, ptr %9, align 8, !tbaa !50
  %96 = icmp eq ptr %95, null
  br i1 %96, label %97, label %98

97:                                               ; preds = %93
  call void (ptr, ...) @exerror(ptr noundef @.str.42)
  store i32 0, ptr %5, align 4
  store i32 1, ptr %15, align 4
  br label %135

98:                                               ; preds = %93
  %99 = load ptr, ptr %10, align 8, !tbaa !11
  %100 = load ptr, ptr %9, align 8, !tbaa !50
  %101 = call i32 @fputs(ptr noundef %99, ptr noundef %100)
  %102 = load ptr, ptr %9, align 8, !tbaa !50
  call void @rewind(ptr noundef %102)
  %103 = load ptr, ptr %9, align 8, !tbaa !50
  %104 = getelementptr inbounds nuw %struct.Fmt_t, ptr %12, i32 0, i32 0
  %105 = call i32 @sfvscanf(ptr noundef %103, ptr noundef %104)
  store i32 %105, ptr %13, align 4, !tbaa !38
  %106 = load ptr, ptr %9, align 8, !tbaa !50
  %107 = call i32 @fclose(ptr noundef %106)
  br label %112

108:                                              ; preds = %68
  %109 = load ptr, ptr %9, align 8, !tbaa !50
  %110 = getelementptr inbounds nuw %struct.Fmt_t, ptr %12, i32 0, i32 0
  %111 = call i32 @sfvscanf(ptr noundef %109, ptr noundef %110)
  store i32 %111, ptr %13, align 4, !tbaa !38
  br label %112

112:                                              ; preds = %108, %98
  %113 = getelementptr inbounds nuw %struct.Fmt_t, ptr %12, i32 0, i32 5
  %114 = load ptr, ptr %113, align 8, !tbaa !105
  %115 = icmp ne ptr %114, null
  br i1 %115, label %116, label %133

116:                                              ; preds = %112
  %117 = getelementptr inbounds nuw %struct.Fmt_t, ptr %12, i32 0, i32 0
  %118 = getelementptr inbounds nuw %struct._sffmt_s, ptr %117, i32 0, i32 1
  %119 = load ptr, ptr %118, align 8, !tbaa !101
  %120 = load i8, ptr %119, align 1, !tbaa !11
  %121 = icmp ne i8 %120, 0
  br i1 %121, label %133, label %122

122:                                              ; preds = %116
  %123 = getelementptr inbounds nuw %struct.Fmt_t, ptr %12, i32 0, i32 5
  %124 = load ptr, ptr %123, align 8, !tbaa !105
  %125 = getelementptr inbounds nuw %struct.Exnode_s, ptr %124, i32 0, i32 4
  %126 = getelementptr inbounds nuw %struct.anon.0, ptr %125, i32 0, i32 0
  %127 = load ptr, ptr %126, align 8, !tbaa !11
  %128 = getelementptr inbounds nuw %struct.Exnode_s, ptr %127, i32 0, i32 4
  %129 = getelementptr inbounds nuw %struct.anon.2, ptr %128, i32 0, i32 0
  %130 = load ptr, ptr %129, align 8, !tbaa !11
  %131 = getelementptr inbounds nuw %struct.Exid_s, ptr %130, i32 0, i32 7
  %132 = getelementptr inbounds [32 x i8], ptr %131, i64 0, i64 0
  call void (ptr, ...) @exerror(ptr noundef @.str.43, ptr noundef %132)
  br label %133

133:                                              ; preds = %122, %116, %112
  %134 = load i32, ptr %13, align 4, !tbaa !38
  store i32 %134, ptr %5, align 4
  store i32 1, ptr %15, align 4
  br label %135

135:                                              ; preds = %133, %97, %64
  call void @llvm.lifetime.end.p0(i64 4, ptr %13) #15
  call void @llvm.lifetime.end.p0(i64 104, ptr %12) #15
  call void @llvm.lifetime.end.p0(i64 8, ptr %11) #15
  call void @llvm.lifetime.end.p0(i64 8, ptr %10) #15
  %136 = load i32, ptr %5, align 4
  ret i32 %136
}