; Function Attrs: nounwind uwtable
define internal fastcc i32 @scan(ptr noundef %0, ptr noundef nonnull readonly captures(none) %1, ptr noundef %2) unnamed_addr #0 {
  %4 = alloca %struct.Fmt_t, align 8
  call void @llvm.lifetime.start.p0(i64 104, ptr nonnull %4) #25
  %5 = getelementptr inbounds nuw i8, ptr %1, i64 32
  %6 = load ptr, ptr %5, align 8, !tbaa !3
  %.not = icmp eq ptr %6, null
  br i1 %.not, label %12, label %7

7:                                                ; preds = %3
  %8 = tail call fastcc ptr @eval(ptr noundef %0, ptr noundef nonnull %6, ptr noundef %2)
  %9 = load ptr, ptr %5, align 8, !tbaa !3
  %10 = load i64, ptr %9, align 8, !tbaa !6
  %11 = icmp eq i64 %10, 263
  br i1 %11, label %23, label %12

12:                                               ; preds = %3, %7
  %.sroa.04.1 = phi ptr [ %8, %7 ], [ null, %3 ]
  %13 = ptrtoint ptr %.sroa.04.1 to i64
  %14 = icmp slt ptr %.sroa.04.1, null
  %15 = icmp sgt ptr %.sroa.04.1, inttoptr (i64 9 to ptr)
  %or.cond = or i1 %14, %15
  br i1 %or.cond, label %22, label %16

16:                                               ; preds = %12
  %17 = getelementptr inbounds nuw i8, ptr %0, i64 16
  %18 = getelementptr inbounds nuw [10 x ptr], ptr %17, i64 0, i64 %13
  %19 = load ptr, ptr %18, align 8, !tbaa !45
  %.not39 = icmp eq ptr %19, null
  br i1 %.not39, label %20, label %23

20:                                               ; preds = %16
  %21 = tail call noalias ptr @tmpfile()
  store ptr %21, ptr %18, align 8, !tbaa !45
  %.not40 = icmp eq ptr %21, null
  br i1 %.not40, label %22, label %23

22:                                               ; preds = %20, %12
  tail call void (ptr, ...) @exerror(ptr noundef nonnull @.str.41, i64 noundef %13) #25
  br label %56

23:                                               ; preds = %20, %16, %7
  %.sroa.04.0 = phi ptr [ %8, %7 ], [ %.sroa.04.1, %16 ], [ %.sroa.04.1, %20 ]
  %.030 = phi ptr [ null, %7 ], [ %19, %16 ], [ %21, %20 ]
  %24 = getelementptr inbounds nuw i8, ptr %4, i64 16
  call void @llvm.memset.p0.i64(ptr noundef nonnull align 8 dereferenceable(104) %24, i8 0, i64 80, i1 false)
  store ptr @scformat, ptr %4, align 8, !tbaa !83
  %25 = getelementptr inbounds nuw i8, ptr %4, i64 64
  store ptr %0, ptr %25, align 8, !tbaa !87
  %26 = getelementptr inbounds nuw i8, ptr %4, i64 72
  store ptr %2, ptr %26, align 8, !tbaa !88
  %27 = getelementptr inbounds nuw i8, ptr %1, i64 40
  %28 = load ptr, ptr %27, align 8, !tbaa !3
  %29 = tail call fastcc ptr @eval(ptr noundef %0, ptr noundef %28, ptr noundef %2)
  %30 = getelementptr inbounds nuw i8, ptr %4, i64 8
  store ptr %29, ptr %30, align 8, !tbaa !92
  %31 = getelementptr inbounds nuw i8, ptr %1, i64 48
  %32 = load ptr, ptr %31, align 8, !tbaa !3
  %33 = getelementptr inbounds nuw i8, ptr %4, i64 96
  store ptr %32, ptr %33, align 8, !tbaa !96
  %34 = icmp eq ptr %.030, null
  br i1 %34, label %35, label %43

35:                                               ; preds = %23
  %36 = tail call noalias ptr @tmpfile()
  %37 = icmp eq ptr %36, null
  br i1 %37, label %38, label %39

38:                                               ; preds = %35
  tail call void (ptr, ...) @exerror(ptr noundef nonnull @.str.42) #25
  br label %56

39:                                               ; preds = %35
  %40 = tail call i32 @fputs(ptr noundef %.sroa.04.0, ptr noundef nonnull %36)
  tail call void @rewind(ptr noundef nonnull %36)
  %41 = call i32 @sfvscanf(ptr noundef nonnull %36, ptr noundef nonnull %4) #25
  %42 = call i32 @fclose(ptr noundef nonnull %36)
  br label %45

43:                                               ; preds = %23
  %44 = call i32 @sfvscanf(ptr noundef nonnull %.030, ptr noundef nonnull %4) #25
  br label %45

45:                                               ; preds = %43, %39
  %.031 = phi i32 [ %41, %39 ], [ %44, %43 ]
  %46 = load ptr, ptr %33, align 8, !tbaa !96
  %.not41 = icmp eq ptr %46, null
  br i1 %.not41, label %56, label %47

47:                                               ; preds = %45
  %48 = load ptr, ptr %30, align 8, !tbaa !92
  %49 = load i8, ptr %48, align 1, !tbaa !3
  %.not42 = icmp eq i8 %49, 0
  br i1 %.not42, label %50, label %56

50:                                               ; preds = %47
  %51 = getelementptr inbounds nuw i8, ptr %46, i64 32
  %52 = load ptr, ptr %51, align 8, !tbaa !3
  %53 = getelementptr inbounds nuw i8, ptr %52, i64 32
  %54 = load ptr, ptr %53, align 8, !tbaa !3
  %55 = getelementptr inbounds nuw i8, ptr %54, i64 64
  call void (ptr, ...) @exerror(ptr noundef nonnull @.str.43, ptr noundef nonnull %55) #25
  br label %56

56:                                               ; preds = %45, %47, %50, %38, %22
  %.0 = phi i32 [ 0, %38 ], [ 0, %22 ], [ %.031, %50 ], [ %.031, %47 ], [ %.031, %45 ]
  call void @llvm.lifetime.end.p0(i64 104, ptr nonnull %4) #25
  ret i32 %.0
}